target datalayout = "e-m:e-p270:32:32-p271:32:32-p272:64:64-i64:64-i128:128-f80:128-n8:16:32:64-S128"
target triple = "x86_64-pc-linux-gnu"

@_ui_panel_config_names = global [6 x ptr] [ptr @.str, ptr @.str.1, ptr @.str.2, ptr @.str.3, ptr @.str.4, ptr @.str.5], align 16
@.str.77 = private unnamed_addr constant [20 x i8] c"panel_collaps_state\00", align 1
@.str.81 = private unnamed_addr constant [9 x i8] c"_visible\00", align 1
@.str.182 = private unnamed_addr constant [1 x i8] zeroinitializer, align 1
@.str.274 = private unnamed_addr constant [5 x i8] c"%s%s\00", align 1

; Function Attrs: nounwind uwtable
define internal ptr @_panels_get_panel_path(i32 noundef %0, ptr noundef %1) #0 {
  %3 = alloca ptr, align 8
  %4 = alloca i32, align 4
  %5 = alloca ptr, align 8
  %6 = alloca ptr, align 8
  %7 = alloca i32, align 4
  store i32 %0, ptr %4, align 4, !tbaa !17
  store ptr %1, ptr %5, align 8, !tbaa !11
  call void @llvm.lifetime.start.p0(i64 8, ptr %6) #15
  %8 = call ptr @_panels_get_view_path(ptr noundef @.str.182)
  store ptr %8, ptr %6, align 8, !tbaa !11
  %9 = load ptr, ptr %6, align 8, !tbaa !11
  %10 = icmp ne ptr %9, null
  br i1 %10, label %12, label %11

11:                                               ; preds = %2
  store ptr null, ptr %3, align 8
  store i32 1, ptr %7, align 4
  br label %19

12:                                               ; preds = %2
  %13 = load i32, ptr %4, align 4, !tbaa !17
  %14 = zext i32 %13 to i64
  %15 = getelementptr inbounds nuw [6 x ptr], ptr @_ui_panel_config_names, i64 0, i64 %14
  %16 = load ptr, ptr %15, align 8, !tbaa !11
  %17 = load ptr, ptr %5, align 8, !tbaa !11
  call void (ptr, ptr, ...) @dt_util_str_cat(ptr noundef %6, ptr noundef @.str.274, ptr noundef %16, ptr noundef %17)
  %18 = load ptr, ptr %6, align 8, !tbaa !11
  store ptr %18, ptr %3, align 8
  store i32 1, ptr %7, align 4
  br label %19

19:                                               ; preds = %12, %11
  call void @llvm.lifetime.end.p0(i64 8, ptr %6) #15
  %20 = load ptr, ptr %3, align 8
  ret ptr %20
}

; Function Attrs: nounwind uwtable
define internal i32 @_panel_is_visible(i32 noundef %0) #0 {
  %2 = alloca i32, align 4
  %3 = alloca i32, align 4
  %4 = alloca ptr, align 8
  %5 = alloca i32, align 4
  %6 = alloca i32, align 4
  store i32 %0, ptr %3, align 4, !tbaa !17
  call void @llvm.lifetime.start.p0(i64 8, ptr %4) #15
  %7 = call ptr @_panels_get_view_path(ptr noundef @.str.77)
  store ptr %7, ptr %4, align 8, !tbaa !11
  %8 = load ptr, ptr %4, align 8, !tbaa !11
  %9 = call i32 @dt_conf_get_int(ptr noundef %8)
  %10 = icmp ne i32 %9, 0
  br i1 %10, label %11, label %13

11:                                               ; preds = %1
  %12 = load ptr, ptr %4, align 8, !tbaa !11
  call void @g_free(ptr noundef %12)
  store i32 0, ptr %2, align 4
  store i32 1, ptr %5, align 4
  br label %20

13:                                               ; preds = %1
  %14 = load i32, ptr %3, align 4, !tbaa !17
  %15 = call ptr @_panels_get_panel_path(i32 noundef %14, ptr noundef @.str.81)
  store ptr %15, ptr %4, align 8, !tbaa !11
  call void @llvm.lifetime.start.p0(i64 4, ptr %6) #15
  %16 = load ptr, ptr %4, align 8, !tbaa !11
  %17 = call i32 @dt_conf_get_bool(ptr noundef %16)
  store i32 %17, ptr %6, align 4, !tbaa !17
  %18 = load ptr, ptr %4, align 8, !tbaa !11
  call void @g_free(ptr noundef %18)
  %19 = load i32, ptr %6, align 4, !tbaa !17
  store i32 %19, ptr %2, align 4
  store i32 1, ptr %5, align 4
  call void @llvm.lifetime.end.p0(i64 4, ptr %6) #15
  br label %20

20:                                               ; preds = %13, %11
  call void @llvm.lifetime.end.p0(i64 8, ptr %4) #15
  %21 = load i32, ptr %2, align 4
  ret i32 %21
}