; Function Attrs: nounwind uwtable
define internal fastcc i32 @_panel_is_visible(i32 noundef range(i32 0, 6) %0) unnamed_addr #0 {
  %2 = alloca ptr, align 8
  %3 = tail call fastcc ptr @_panels_get_view_path(ptr noundef nonnull @.str.77)
  %4 = tail call i32 @dt_conf_get_int(ptr noundef %3) #18
  %.not = icmp eq i32 %4, 0
  br i1 %.not, label %6, label %5

5:                                                ; preds = %1
  tail call void @g_free(ptr noundef %3) #18
  br label %14

6:                                                ; preds = %1
  call void @llvm.lifetime.start.p0(i64 8, ptr nonnull %2) #18
  %7 = tail call fastcc ptr @_panels_get_view_path(ptr noundef nonnull @.str.182)
  store ptr %7, ptr %2, align 8, !tbaa !126
  %.not.i = icmp eq ptr %7, null
  br i1 %.not.i, label %_panels_get_panel_path.exit, label %8

8:                                                ; preds = %6
  %9 = zext nneg i32 %0 to i64
  %10 = getelementptr inbounds nuw [6 x ptr], ptr @_ui_panel_config_names, i64 0, i64 %9
  %11 = load ptr, ptr %10, align 8, !tbaa !126
  call void (ptr, ptr, ...) @dt_util_str_cat(ptr noundef nonnull %2, ptr noundef nonnull @.str.274, ptr noundef %11, ptr noundef nonnull @.str.81) #18
  %12 = load ptr, ptr %2, align 8, !tbaa !126
  br label %_panels_get_panel_path.exit

_panels_get_panel_path.exit:                      ; preds = %6, %8
  %.0.i = phi ptr [ %12, %8 ], [ null, %6 ]
  call void @llvm.lifetime.end.p0(i64 8, ptr nonnull %2) #18
  %13 = call i32 @dt_conf_get_bool(ptr noundef %.0.i) #18
  call void @g_free(ptr noundef %.0.i) #18
  br label %14

14:                                               ; preds = %_panels_get_panel_path.exit, %5
  %.0 = phi i32 [ 0, %5 ], [ %13, %_panels_get_panel_path.exit ]
  ret i32 %.0
}